; Function Attrs: mustprogress uwtable
define noundef zeroext i1 @_ZNK32pxrInternal_v0_24__pxrReserved__8TsSplineneERKS0_(ptr nocapture noundef nonnull readonly align 8 dereferenceable(16) %0, ptr nocapture noundef nonnull readonly align 8 dereferenceable(16) %1) local_unnamed_addr #3 align 2 {
  %3 = load ptr, ptr %0, align 8
  %4 = load ptr, ptr %1, align 8
  %5 = icmp eq ptr %3, %4
  br i1 %5, label %_ZNK32pxrInternal_v0_24__pxrReserved__8TsSplineeqERKS0_.exit, label %6

6:                                                ; preds = %2
  %7 = tail call noundef zeroext i1 @_ZNK32pxrInternal_v0_24__pxrReserved__18TsSpline_KeyFrameseqERKS0_(ptr noundef nonnull align 8 dereferenceable(136) %3, ptr noundef nonnull align 8 dereferenceable(136) %4)
  %8 = xor i1 %7, true
  br label %_ZNK32pxrInternal_v0_24__pxrReserved__8TsSplineeqERKS0_.exit

_ZNK32pxrInternal_v0_24__pxrReserved__8TsSplineeqERKS0_.exit: ; preds = %2, %6
  %9 = phi i1 [ false, %2 ], [ %8, %6 ]
  ret i1 %9
}